; ModuleID = '17/287.c'
source_filename = "17/287.c"
target datalayout = "e-m:e-p270:32:32-p271:32:32-p272:64:64-i64:64-f80:128-n8:16:32:64-S128"
target triple = "x86_64-pc-linux-gnu"

@.str = private unnamed_addr constant [3 x i8] c"%s\00", align 1
@.str.1 = private unnamed_addr constant [4 x i8] c"'\00'\00", align 1

; Function Attrs: noinline nounwind uwtable
define dso_local i32 @main() #0 {
  %1 = alloca i32, align 4
  %2 = alloca [200 x i8], align 16
  %3 = alloca [200 x i8], align 16
  %4 = alloca i32, align 4
  store i32 0, i32* %1, align 4
  br label %5

5:                                                ; preds = %48, %0
  %6 = getelementptr inbounds [200 x i8], [200 x i8]* %2, i64 0, i64 0
  %7 = call i32 (i8*, ...) @__isoc99_scanf(i8* getelementptr inbounds ([3 x i8], [3 x i8]* @.str, i64 0, i64 0), i8* %6)
  %8 = icmp ne i32 %7, -1
  br i1 %8, label %9, label %56

9:                                                ; preds = %5
  %10 = bitcast [200 x i8]* %3 to i8*
  call void @llvm.memset.p0i8.i64(i8* align 16 %10, i8 0, i64 200, i1 false)
  store i32 0, i32* %4, align 4
  br label %11

11:                                               ; preds = %45, %9
  %12 = load i32, i32* %4, align 4
  %13 = sext i32 %12 to i64
  %14 = getelementptr inbounds [200 x i8], [200 x i8]* %2, i64 0, i64 %13
  %15 = load i8, i8* %14, align 1
  %16 = icmp ne i8 %15, 0
  br i1 %16, label %17, label %48

17:                                               ; preds = %11
  %18 = load i32, i32* %4, align 4
  %19 = sext i32 %18 to i64
  %20 = getelementptr inbounds [200 x i8], [200 x i8]* %2, i64 0, i64 %19
  %21 = load i8, i8* %20, align 1
  %22 = sext i8 %21 to i32
  %23 = icmp eq i32 %22, 40
  br i1 %23, label %24, label %28

24:                                               ; preds = %17
  %25 = load i32, i32* %4, align 4
  %26 = sext i32 %25 to i64
  %27 = getelementptr inbounds [200 x i8], [200 x i8]* %3, i64 0, i64 %26
  store i8 36, i8* %27, align 1
  br label %44

28:                                               ; preds = %17
  %29 = load i32, i32* %4, align 4
  %30 = sext i32 %29 to i64
  %31 = getelementptr inbounds [200 x i8], [200 x i8]* %2, i64 0, i64 %30
  %32 = load i8, i8* %31, align 1
  %33 = sext i8 %32 to i32
  %34 = icmp eq i32 %33, 41
  br i1 %34, label %35, label %39

35:                                               ; preds = %28
  %36 = load i32, i32* %4, align 4
  %37 = sext i32 %36 to i64
  %38 = getelementptr inbounds [200 x i8], [200 x i8]* %3, i64 0, i64 %37
  store i8 63, i8* %38, align 1
  br label %43

39:                                               ; preds = %28
  %40 = load i32, i32* %4, align 4
  %41 = sext i32 %40 to i64
  %42 = getelementptr inbounds [200 x i8], [200 x i8]* %3, i64 0, i64 %41
  store i8 32, i8* %42, align 1
  br label %43

43:                                               ; preds = %39, %35
  br label %44

44:                                               ; preds = %43, %24
  br label %45

45:                                               ; preds = %44
  %46 = load i32, i32* %4, align 4
  %47 = add nsw i32 %46, 1
  store i32 %47, i32* %4, align 4
  br label %11

48:                                               ; preds = %11
  %49 = getelementptr inbounds [200 x i8], [200 x i8]* %3, i64 0, i64 0
  call void @func(i8* %49)
  %50 = getelementptr inbounds [200 x i8], [200 x i8]* %2, i64 0, i64 0
  %51 = call i32 @puts(i8* %50)
  %52 = getelementptr inbounds [200 x i8], [200 x i8]* %3, i64 0, i64 0
  %53 = call i32 @puts(i8* %52)
  %54 = getelementptr inbounds [200 x i8], [200 x i8]* %2, i64 0, i64 0
  %55 = call i8* @strcpy(i8* %54, i8* getelementptr inbounds ([4 x i8], [4 x i8]* @.str.1, i64 0, i64 0)) #5
  br label %5

56:                                               ; preds = %5
  ret i32 0
}

declare dso_local i32 @__isoc99_scanf(i8*, ...) #1

; Function Attrs: argmemonly nounwind willreturn
declare void @llvm.memset.p0i8.i64(i8* nocapture writeonly, i8, i64, i1 immarg) #2

; Function Attrs: noinline nounwind uwtable
define dso_local void @func(i8* %0) #0 {
  %2 = alloca i8*, align 8
  %3 = alloca i32, align 4
  %4 = alloca i32, align 4
  %5 = alloca i32, align 4
  %6 = alloca i32, align 4
  store i8* %0, i8** %2, align 8
  store i32 0, i32* %4, align 4
  store i32 0, i32* %5, align 4
  %7 = load i8*, i8** %2, align 8
  %8 = call i64 @strlen(i8* %7) #6
  %9 = trunc i64 %8 to i32
  store i32 %9, i32* %6, align 4
  store i32 0, i32* %3, align 4
  br label %10

10:                                               ; preds = %116, %1
  %11 = load i32, i32* %3, align 4
  %12 = sext i32 %11 to i64
  %13 = load i8*, i8** %2, align 8
  %14 = call i64 @strlen(i8* %13) #6
  %15 = icmp ult i64 %12, %14
  br i1 %15, label %16, label %119

16:                                               ; preds = %10
  br label %17

17:                                               ; preds = %43, %16
  %18 = load i8*, i8** %2, align 8
  %19 = load i32, i32* %3, align 4
  %20 = sext i32 %19 to i64
  %21 = getelementptr inbounds i8, i8* %18, i64 %20
  %22 = load i8, i8* %21, align 1
  %23 = sext i8 %22 to i32
  %24 = icmp eq i32 %23, 36
  br i1 %24, label %41, label %25

25:                                               ; preds = %17
  %26 = load i8*, i8** %2, align 8
  %27 = load i32, i32* %3, align 4
  %28 = sext i32 %27 to i64
  %29 = getelementptr inbounds i8, i8* %26, i64 %28
  %30 = load i8, i8* %29, align 1
  %31 = sext i8 %30 to i32
  %32 = icmp eq i32 %31, 63
  br i1 %32, label %41, label %33

33:                                               ; preds = %25
  %34 = load i8*, i8** %2, align 8
  %35 = load i32, i32* %3, align 4
  %36 = sext i32 %35 to i64
  %37 = getelementptr inbounds i8, i8* %34, i64 %36
  %38 = load i8, i8* %37, align 1
  %39 = sext i8 %38 to i32
  %40 = icmp ne i32 %39, 0
  br label %41

41:                                               ; preds = %33, %25, %17
  %42 = phi i1 [ false, %25 ], [ false, %17 ], [ %40, %33 ]
  br i1 %42, label %43, label %46

43:                                               ; preds = %41
  %44 = load i32, i32* %3, align 4
  %45 = add nsw i32 %44, 1
  store i32 %45, i32* %3, align 4
  br label %17

46:                                               ; preds = %41
  %47 = load i32, i32* %3, align 4
  store i32 %47, i32* %4, align 4
  %48 = load i32, i32* %3, align 4
  %49 = add nsw i32 %48, 1
  store i32 %49, i32* %3, align 4
  br label %50

50:                                               ; preds = %76, %46
  %51 = load i8*, i8** %2, align 8
  %52 = load i32, i32* %3, align 4
  %53 = sext i32 %52 to i64
  %54 = getelementptr inbounds i8, i8* %51, i64 %53
  %55 = load i8, i8* %54, align 1
  %56 = sext i8 %55 to i32
  %57 = icmp eq i32 %56, 36
  br i1 %57, label %74, label %58

58:                                               ; preds = %50
  %59 = load i8*, i8** %2, align 8
  %60 = load i32, i32* %3, align 4
  %61 = sext i32 %60 to i64
  %62 = getelementptr inbounds i8, i8* %59, i64 %61
  %63 = load i8, i8* %62, align 1
  %64 = sext i8 %63 to i32
  %65 = icmp eq i32 %64, 63
  br i1 %65, label %74, label %66

66:                                               ; preds = %58
  %67 = load i8*, i8** %2, align 8
  %68 = load i32, i32* %3, align 4
  %69 = sext i32 %68 to i64
  %70 = getelementptr inbounds i8, i8* %67, i64 %69
  %71 = load i8, i8* %70, align 1
  %72 = sext i8 %71 to i32
  %73 = icmp ne i32 %72, 0
  br label %74

74:                                               ; preds = %66, %58, %50
  %75 = phi i1 [ false, %58 ], [ false, %50 ], [ %73, %66 ]
  br i1 %75, label %76, label %79

76:                                               ; preds = %74
  %77 = load i32, i32* %3, align 4
  %78 = add nsw i32 %77, 1
  store i32 %78, i32* %3, align 4
  br label %50

79:                                               ; preds = %74
  %80 = load i8*, i8** %2, align 8
  %81 = load i32, i32* %3, align 4
  %82 = sext i32 %81 to i64
  %83 = getelementptr inbounds i8, i8* %80, i64 %82
  %84 = load i8, i8* %83, align 1
  %85 = sext i8 %84 to i32
  %86 = icmp eq i32 %85, 0
  br i1 %86, label %87, label %88

87:                                               ; preds = %79
  br label %119

88:                                               ; preds = %79
  %89 = load i32, i32* %3, align 4
  store i32 %89, i32* %5, align 4
  %90 = load i8*, i8** %2, align 8
  %91 = load i32, i32* %4, align 4
  %92 = sext i32 %91 to i64
  %93 = getelementptr inbounds i8, i8* %90, i64 %92
  %94 = load i8, i8* %93, align 1
  %95 = sext i8 %94 to i32
  %96 = icmp eq i32 %95, 36
  br i1 %96, label %97, label %114

97:                                               ; preds = %88
  %98 = load i8*, i8** %2, align 8
  %99 = load i32, i32* %5, align 4
  %100 = sext i32 %99 to i64
  %101 = getelementptr inbounds i8, i8* %98, i64 %100
  %102 = load i8, i8* %101, align 1
  %103 = sext i8 %102 to i32
  %104 = icmp eq i32 %103, 63
  br i1 %104, label %105, label %114

105:                                              ; preds = %97
  %106 = load i8*, i8** %2, align 8
  %107 = load i32, i32* %4, align 4
  %108 = sext i32 %107 to i64
  %109 = getelementptr inbounds i8, i8* %106, i64 %108
  store i8 32, i8* %109, align 1
  %110 = load i8*, i8** %2, align 8
  %111 = load i32, i32* %5, align 4
  %112 = sext i32 %111 to i64
  %113 = getelementptr inbounds i8, i8* %110, i64 %112
  store i8 32, i8* %113, align 1
  store i32 -1, i32* %3, align 4
  br label %116

114:                                              ; preds = %97, %88
  %115 = load i32, i32* %4, align 4
  store i32 %115, i32* %3, align 4
  br label %116

116:                                              ; preds = %114, %105
  %117 = load i32, i32* %3, align 4
  %118 = add nsw i32 %117, 1
  store i32 %118, i32* %3, align 4
  br label %10

119:                                              ; preds = %87, %10
  ret void
}

declare dso_local i32 @puts(i8*) #1

; Function Attrs: nounwind
declare dso_local i8* @strcpy(i8*, i8*) #3

; Function Attrs: nounwind readonly
declare dso_local i64 @strlen(i8*) #4


!llvm.module.flags = !{!0}
!llvm.ident = !{!1}

!0 = !{i32 1, !"wchar_size", i32 4}
!1 = !{!"clang version 10.0.0-4ubuntu1 "}
